target datalayout = "e-m:e-p270:32:32-p271:32:32-p272:64:64-i64:64-i128:128-f80:128-n8:16:32:64-S128"
target triple = "x86_64-pc-linux-gnu"

%"class.std::__cxx11::basic_string" = type { %"struct.std::__cxx11::basic_string<char>::_Alloc_hider", i64, %union.anon }
%"struct.std::__cxx11::basic_string<char>::_Alloc_hider" = type { ptr }
%union.anon = type { i64, [8 x i8] }
%"class.glTF::Asset" = type { ptr, %"class.std::__cxx11::basic_string", i64, i64, i64, %"class.std::vector.11", %"class.std::map", %"class.glTFCommon::Ref", %"struct.glTF::Asset::Extensions", %"struct.glTF::AssetMetadata", %"class.glTF::LazyDict", %"class.glTF::LazyDict.29", %"class.glTF::LazyDict.35", %"class.glTF::LazyDict.41", %"class.glTF::LazyDict.47", %"class.glTF::LazyDict.53", %"class.glTF::LazyDict.59", %"class.glTF::LazyDict.65", %"class.glTF::LazyDict.71", %"class.glTF::LazyDict.77", %"class.glTF::LazyDict.83", %"class.glTF::LazyDict.89", %"class.glTF::LazyDict.95", %"class.glTF::LazyDict.101", %"class.glTFCommon::Ref.107" }
%"class.std::vector.11" = type { %"struct.std::_Vector_base.12" }
%"struct.std::_Vector_base.12" = type { %"struct.std::_Vector_base<glTF::LazyDictBase *, std::allocator<glTF::LazyDictBase *>>::_Vector_impl" }
%"struct.std::_Vector_base<glTF::LazyDictBase *, std::allocator<glTF::LazyDictBase *>>::_Vector_impl" = type { %"struct.std::_Vector_base<glTF::LazyDictBase *, std::allocator<glTF::LazyDictBase *>>::_Vector_impl_data" }
%"struct.std::_Vector_base<glTF::LazyDictBase *, std::allocator<glTF::LazyDictBase *>>::_Vector_impl_data" = type { ptr, ptr, ptr }
%"class.std::map" = type { %"class.std::_Rb_tree" }
%"class.std::_Rb_tree" = type { %"struct.std::_Rb_tree<std::__cxx11::basic_string<char>, std::pair<const std::__cxx11::basic_string<char>, int>, std::_Select1st<std::pair<const std::__cxx11::basic_string<char>, int>>, std::less<std::__cxx11::basic_string<char>>>::_Rb_tree_impl" }
%"struct.std::_Rb_tree<std::__cxx11::basic_string<char>, std::pair<const std::__cxx11::basic_string<char>, int>, std::_Select1st<std::pair<const std::__cxx11::basic_string<char>, int>>, std::less<std::__cxx11::basic_string<char>>>::_Rb_tree_impl" = type { [8 x i8], %"struct.std::_Rb_tree_header" }
%"struct.std::_Rb_tree_header" = type { %"struct.std::_Rb_tree_node_base", i64 }
%"struct.std::_Rb_tree_node_base" = type { i32, ptr, ptr, ptr }
%"class.glTFCommon::Ref" = type <{ ptr, i32, [4 x i8] }>
%"struct.glTF::Asset::Extensions" = type { i8, i8 }
%"struct.glTF::AssetMetadata" = type { %"class.std::__cxx11::basic_string", %"class.std::__cxx11::basic_string", i8, %struct.anon, %"class.std::__cxx11::basic_string" }
%struct.anon = type { %"class.std::__cxx11::basic_string", %"class.std::__cxx11::basic_string" }
%"class.glTF::LazyDict" = type { %"class.glTF::LazyDictBase", %"class.std::vector.19", %"class.std::map.24", ptr, ptr, ptr, ptr }
%"class.glTF::LazyDictBase" = type { ptr }
%"class.std::vector.19" = type { %"struct.std::_Vector_base.20" }
%"struct.std::_Vector_base.20" = type { %"struct.std::_Vector_base<glTF::Accessor *, std::allocator<glTF::Accessor *>>::_Vector_impl" }
%"struct.std::_Vector_base<glTF::Accessor *, std::allocator<glTF::Accessor *>>::_Vector_impl" = type { %"struct.std::_Vector_base<glTF::Accessor *, std::allocator<glTF::Accessor *>>::_Vector_impl_data" }
%"struct.std::_Vector_base<glTF::Accessor *, std::allocator<glTF::Accessor *>>::_Vector_impl_data" = type { ptr, ptr, ptr }
%"class.std::map.24" = type { %"class.std::_Rb_tree.25" }
%"class.std::_Rb_tree.25" = type { %"struct.std::_Rb_tree<std::__cxx11::basic_string<char>, std::pair<const std::__cxx11::basic_string<char>, unsigned int>, std::_Select1st<std::pair<const std::__cxx11::basic_string<char>, unsigned int>>, std::less<std::__cxx11::basic_string<char>>>::_Rb_tree_impl" }
%"struct.std::_Rb_tree<std::__cxx11::basic_string<char>, std::pair<const std::__cxx11::basic_string<char>, unsigned int>, std::_Select1st<std::pair<const std::__cxx11::basic_string<char>, unsigned int>>, std::less<std::__cxx11::basic_string<char>>>::_Rb_tree_impl" = type { [8 x i8], %"struct.std::_Rb_tree_header" }
%"class.glTF::LazyDict.29" = type { %"class.glTF::LazyDictBase", %"class.std::vector.30", %"class.std::map.24", ptr, ptr, ptr, ptr }
%"class.std::vector.30" = type { %"struct.std::_Vector_base.31" }
%"struct.std::_Vector_base.31" = type { %"struct.std::_Vector_base<glTF::Animation *, std::allocator<glTF::Animation *>>::_Vector_impl" }
%"struct.std::_Vector_base<glTF::Animation *, std::allocator<glTF::Animation *>>::_Vector_impl" = type { %"struct.std::_Vector_base<glTF::Animation *, std::allocator<glTF::Animation *>>::_Vector_impl_data" }
%"struct.std::_Vector_base<glTF::Animation *, std::allocator<glTF::Animation *>>::_Vector_impl_data" = type { ptr, ptr, ptr }
%"class.glTF::LazyDict.35" = type { %"class.glTF::LazyDictBase", %"class.std::vector.36", %"class.std::map.24", ptr, ptr, ptr, ptr }
%"class.std::vector.36" = type { %"struct.std::_Vector_base.37" }
%"struct.std::_Vector_base.37" = type { %"struct.std::_Vector_base<glTF::Buffer *, std::allocator<glTF::Buffer *>>::_Vector_impl" }
%"struct.std::_Vector_base<glTF::Buffer *, std::allocator<glTF::Buffer *>>::_Vector_impl" = type { %"struct.std::_Vector_base<glTF::Buffer *, std::allocator<glTF::Buffer *>>::_Vector_impl_data" }
%"struct.std::_Vector_base<glTF::Buffer *, std::allocator<glTF::Buffer *>>::_Vector_impl_data" = type { ptr, ptr, ptr }
%"class.glTF::LazyDict.41" = type { %"class.glTF::LazyDictBase", %"class.std::vector.42", %"class.std::map.24", ptr, ptr, ptr, ptr }
%"class.std::vector.42" = type { %"struct.std::_Vector_base.43" }
%"struct.std::_Vector_base.43" = type { %"struct.std::_Vector_base<glTF::BufferView *, std::allocator<glTF::BufferView *>>::_Vector_impl" }
%"struct.std::_Vector_base<glTF::BufferView *, std::allocator<glTF::BufferView *>>::_Vector_impl" = type { %"struct.std::_Vector_base<glTF::BufferView *, std::allocator<glTF::BufferView *>>::_Vector_impl_data" }
%"struct.std::_Vector_base<glTF::BufferView *, std::allocator<glTF::BufferView *>>::_Vector_impl_data" = type { ptr, ptr, ptr }
%"class.glTF::LazyDict.47" = type { %"class.glTF::LazyDictBase", %"class.std::vector.48", %"class.std::map.24", ptr, ptr, ptr, ptr }
%"class.std::vector.48" = type { %"struct.std::_Vector_base.49" }
%"struct.std::_Vector_base.49" = type { %"struct.std::_Vector_base<glTF::Camera *, std::allocator<glTF::Camera *>>::_Vector_impl" }
%"struct.std::_Vector_base<glTF::Camera *, std::allocator<glTF::Camera *>>::_Vector_impl" = type { %"struct.std::_Vector_base<glTF::Camera *, std::allocator<glTF::Camera *>>::_Vector_impl_data" }
%"struct.std::_Vector_base<glTF::Camera *, std::allocator<glTF::Camera *>>::_Vector_impl_data" = type { ptr, ptr, ptr }
%"class.glTF::LazyDict.53" = type { %"class.glTF::LazyDictBase", %"class.std::vector.54", %"class.std::map.24", ptr, ptr, ptr, ptr }
%"class.std::vector.54" = type { %"struct.std::_Vector_base.55" }
%"struct.std::_Vector_base.55" = type { %"struct.std::_Vector_base<glTF::Image *, std::allocator<glTF::Image *>>::_Vector_impl" }
%"struct.std::_Vector_base<glTF::Image *, std::allocator<glTF::Image *>>::_Vector_impl" = type { %"struct.std::_Vector_base<glTF::Image *, std::allocator<glTF::Image *>>::_Vector_impl_data" }
%"struct.std::_Vector_base<glTF::Image *, std::allocator<glTF::Image *>>::_Vector_impl_data" = type { ptr, ptr, ptr }
%"class.glTF::LazyDict.59" = type { %"class.glTF::LazyDictBase", %"class.std::vector.60", %"class.std::map.24", ptr, ptr, ptr, ptr }
%"class.std::vector.60" = type { %"struct.std::_Vector_base.61" }
%"struct.std::_Vector_base.61" = type { %"struct.std::_Vector_base<glTF::Material *, std::allocator<glTF::Material *>>::_Vector_impl" }
%"struct.std::_Vector_base<glTF::Material *, std::allocator<glTF::Material *>>::_Vector_impl" = type { %"struct.std::_Vector_base<glTF::Material *, std::allocator<glTF::Material *>>::_Vector_impl_data" }
%"struct.std::_Vector_base<glTF::Material *, std::allocator<glTF::Material *>>::_Vector_impl_data" = type { ptr, ptr, ptr }
%"class.glTF::LazyDict.65" = type { %"class.glTF::LazyDictBase", %"class.std::vector.66", %"class.std::map.24", ptr, ptr, ptr, ptr }
%"class.std::vector.66" = type { %"struct.std::_Vector_base.67" }
%"struct.std::_Vector_base.67" = type { %"struct.std::_Vector_base<glTF::Mesh *, std::allocator<glTF::Mesh *>>::_Vector_impl" }
%"struct.std::_Vector_base<glTF::Mesh *, std::allocator<glTF::Mesh *>>::_Vector_impl" = type { %"struct.std::_Vector_base<glTF::Mesh *, std::allocator<glTF::Mesh *>>::_Vector_impl_data" }
%"struct.std::_Vector_base<glTF::Mesh *, std::allocator<glTF::Mesh *>>::_Vector_impl_data" = type { ptr, ptr, ptr }
%"class.glTF::LazyDict.71" = type { %"class.glTF::LazyDictBase", %"class.std::vector.72", %"class.std::map.24", ptr, ptr, ptr, ptr }
%"class.std::vector.72" = type { %"struct.std::_Vector_base.73" }
%"struct.std::_Vector_base.73" = type { %"struct.std::_Vector_base<glTF::Node *, std::allocator<glTF::Node *>>::_Vector_impl" }
%"struct.std::_Vector_base<glTF::Node *, std::allocator<glTF::Node *>>::_Vector_impl" = type { %"struct.std::_Vector_base<glTF::Node *, std::allocator<glTF::Node *>>::_Vector_impl_data" }
%"struct.std::_Vector_base<glTF::Node *, std::allocator<glTF::Node *>>::_Vector_impl_data" = type { ptr, ptr, ptr }
%"class.glTF::LazyDict.77" = type { %"class.glTF::LazyDictBase", %"class.std::vector.78", %"class.std::map.24", ptr, ptr, ptr, ptr }
%"class.std::vector.78" = type { %"struct.std::_Vector_base.79" }
%"struct.std::_Vector_base.79" = type { %"struct.std::_Vector_base<glTF::Sampler *, std::allocator<glTF::Sampler *>>::_Vector_impl" }
%"struct.std::_Vector_base<glTF::Sampler *, std::allocator<glTF::Sampler *>>::_Vector_impl" = type { %"struct.std::_Vector_base<glTF::Sampler *, std::allocator<glTF::Sampler *>>::_Vector_impl_data" }
%"struct.std::_Vector_base<glTF::Sampler *, std::allocator<glTF::Sampler *>>::_Vector_impl_data" = type { ptr, ptr, ptr }
%"class.glTF::LazyDict.83" = type { %"class.glTF::LazyDictBase", %"class.std::vector.84", %"class.std::map.24", ptr, ptr, ptr, ptr }
%"class.std::vector.84" = type { %"struct.std::_Vector_base.85" }
%"struct.std::_Vector_base.85" = type { %"struct.std::_Vector_base<glTF::Scene *, std::allocator<glTF::Scene *>>::_Vector_impl" }
%"struct.std::_Vector_base<glTF::Scene *, std::allocator<glTF::Scene *>>::_Vector_impl" = type { %"struct.std::_Vector_base<glTF::Scene *, std::allocator<glTF::Scene *>>::_Vector_impl_data" }
%"struct.std::_Vector_base<glTF::Scene *, std::allocator<glTF::Scene *>>::_Vector_impl_data" = type { ptr, ptr, ptr }
%"class.glTF::LazyDict.89" = type { %"class.glTF::LazyDictBase", %"class.std::vector.90", %"class.std::map.24", ptr, ptr, ptr, ptr }
%"class.std::vector.90" = type { %"struct.std::_Vector_base.91" }
%"struct.std::_Vector_base.91" = type { %"struct.std::_Vector_base<glTF::Skin *, std::allocator<glTF::Skin *>>::_Vector_impl" }
%"struct.std::_Vector_base<glTF::Skin *, std::allocator<glTF::Skin *>>::_Vector_impl" = type { %"struct.std::_Vector_base<glTF::Skin *, std::allocator<glTF::Skin *>>::_Vector_impl_data" }
%"struct.std::_Vector_base<glTF::Skin *, std::allocator<glTF::Skin *>>::_Vector_impl_data" = type { ptr, ptr, ptr }
%"class.glTF::LazyDict.95" = type { %"class.glTF::LazyDictBase", %"class.std::vector.96", %"class.std::map.24", ptr, ptr, ptr, ptr }
%"class.std::vector.96" = type { %"struct.std::_Vector_base.97" }
%"struct.std::_Vector_base.97" = type { %"struct.std::_Vector_base<glTF::Texture *, std::allocator<glTF::Texture *>>::_Vector_impl" }
%"struct.std::_Vector_base<glTF::Texture *, std::allocator<glTF::Texture *>>::_Vector_impl" = type { %"struct.std::_Vector_base<glTF::Texture *, std::allocator<glTF::Texture *>>::_Vector_impl_data" }
%"struct.std::_Vector_base<glTF::Texture *, std::allocator<glTF::Texture *>>::_Vector_impl_data" = type { ptr, ptr, ptr }
%"class.glTF::LazyDict.101" = type { %"class.glTF::LazyDictBase", %"class.std::vector.102", %"class.std::map.24", ptr, ptr, ptr, ptr }
%"class.std::vector.102" = type { %"struct.std::_Vector_base.103" }
%"struct.std::_Vector_base.103" = type { %"struct.std::_Vector_base<glTF::Light *, std::allocator<glTF::Light *>>::_Vector_impl" }
%"struct.std::_Vector_base<glTF::Light *, std::allocator<glTF::Light *>>::_Vector_impl" = type { %"struct.std::_Vector_base<glTF::Light *, std::allocator<glTF::Light *>>::_Vector_impl_data" }
%"struct.std::_Vector_base<glTF::Light *, std::allocator<glTF::Light *>>::_Vector_impl_data" = type { ptr, ptr, ptr }
%"class.glTFCommon::Ref.107" = type <{ ptr, i32, [4 x i8] }>

@.str = private unnamed_addr constant [5 x i8] c"glTF\00", align 1

; Function Attrs: mustprogress nounwind uwtable
define available_externally noundef ptr @_ZNKSt7__cxx1112basic_stringIcSt11char_traitsIcESaIcEE7_M_dataEv(ptr noundef nonnull align 8 dereferenceable(32) %0) #2 align 2 {
  %2 = alloca ptr, align 8
  store ptr %0, ptr %2, align 8
  %3 = load ptr, ptr %2, align 8
  %4 = getelementptr inbounds nuw %"class.std::__cxx11::basic_string", ptr %3, i32 0, i32 0
  %5 = getelementptr inbounds nuw %"struct.std::__cxx11::basic_string<char>::_Alloc_hider", ptr %4, i32 0, i32 0
  %6 = load ptr, ptr %5, align 8
  ret ptr %6
}

; Function Attrs: mustprogress nounwind uwtable
define available_externally noundef nonnull align 1 dereferenceable(1) ptr @_ZNKSt7__cxx1112basic_stringIcSt11char_traitsIcESaIcEEixEm(ptr noundef nonnull align 8 dereferenceable(32) %0, i64 noundef %1) #2 align 2 {
  %3 = alloca ptr, align 8
  %4 = alloca i64, align 8
  store ptr %0, ptr %3, align 8
  store i64 %1, ptr %4, align 8
  %5 = load ptr, ptr %3, align 8
  br label %6

6:                                                ; preds = %2
  br label %7

7:                                                ; preds = %6
  br label %8

8:                                                ; preds = %7
  %9 = call noundef ptr @_ZNKSt7__cxx1112basic_stringIcSt11char_traitsIcESaIcEE7_M_dataEv(ptr noundef nonnull align 8 dereferenceable(32) %5)
  %10 = load i64, ptr %4, align 8
  %11 = getelementptr inbounds nuw i8, ptr %9, i64 %10
  ret ptr %11
}

; Function Attrs: mustprogress nounwind uwtable
define available_externally noundef i64 @_ZNKSt7__cxx1112basic_stringIcSt11char_traitsIcESaIcEE4sizeEv(ptr noundef nonnull align 8 dereferenceable(32) %0) #2 align 2 {
  %2 = alloca ptr, align 8
  store ptr %0, ptr %2, align 8
  %3 = load ptr, ptr %2, align 8
  %4 = getelementptr inbounds nuw %"class.std::__cxx11::basic_string", ptr %3, i32 0, i32 1
  %5 = load i64, ptr %4, align 8
  ret i64 %5
}

; Function Attrs: mustprogress nounwind uwtable
define linkonce_odr hidden noundef zeroext i1 @_ZNK4glTF13AssetMetadatacvbEv(ptr noundef nonnull align 8 dereferenceable(168) %0) #2 comdat align 2 {
  %2 = alloca ptr, align 8
  store ptr %0, ptr %2, align 8
  %3 = load ptr, ptr %2, align 8
  %4 = getelementptr inbounds nuw %"struct.glTF::AssetMetadata", ptr %3, i32 0, i32 4
  %5 = call noundef i64 @_ZNKSt7__cxx1112basic_stringIcSt11char_traitsIcESaIcEE4sizeEv(ptr noundef nonnull align 8 dereferenceable(32) %4) #23
  %6 = icmp ne i64 %5, 0
  br i1 %6, label %7, label %13

7:                                                ; preds = %1
  %8 = getelementptr inbounds nuw %"struct.glTF::AssetMetadata", ptr %3, i32 0, i32 4
  %9 = call noundef nonnull align 1 dereferenceable(1) ptr @_ZNKSt7__cxx1112basic_stringIcSt11char_traitsIcESaIcEEixEm(ptr noundef nonnull align 8 dereferenceable(32) %8, i64 noundef 0) #23
  %10 = load i8, ptr %9, align 1
  %11 = sext i8 %10 to i32
  %12 = icmp eq i32 %11, 49
  br label %13

13:                                               ; preds = %7, %1
  %14 = phi i1 [ false, %1 ], [ %12, %7 ]
  ret i1 %14
}

; Function Attrs: mustprogress uwtable
define hidden noundef zeroext i1 @_ZNK6Assimp12glTFImporter7CanReadERKNSt7__cxx1112basic_stringIcSt11char_traitsIcESaIcEEEPNS_8IOSystemEb(ptr noundef nonnull align 8 dereferenceable(128) %0, ptr noundef nonnull align 8 dereferenceable(32) %1, ptr noundef %2, i1 noundef zeroext %3) unnamed_addr #6 align 2 personality ptr @__gxx_personality_v0 {
  %5 = alloca i1, align 1
  %6 = alloca ptr, align 8
  %7 = alloca ptr, align 8
  %8 = alloca ptr, align 8
  %9 = alloca i8, align 1
  %10 = alloca %"class.glTF::Asset", align 8
  %11 = alloca ptr, align 8
  %12 = alloca i32, align 4
  %13 = alloca i32, align 4
  store ptr %0, ptr %6, align 8
  store ptr %1, ptr %7, align 8
  store ptr %2, ptr %8, align 8
  %14 = zext i1 %3 to i8
  store i8 %14, ptr %9, align 1
  call void @llvm.lifetime.start.p0(i64 1912, ptr %10) #23
  %15 = load ptr, ptr %8, align 8
  call void @_ZN4glTF5AssetC2EPN6Assimp8IOSystemE(ptr noundef nonnull align 8 dereferenceable(1912) %10, ptr noundef %15)
  %16 = load ptr, ptr %7, align 8
  %17 = load ptr, ptr %8, align 8
  %18 = load ptr, ptr %7, align 8
  %19 = invoke noundef zeroext i1 @_ZN6Assimp12BaseImporter15CheckMagicTokenEPNS_8IOSystemERKNSt7__cxx1112basic_stringIcSt11char_traitsIcESaIcEEEPKvmjj(ptr noundef %17, ptr noundef nonnull align 8 dereferenceable(32) %18, ptr noundef @.str, i64 noundef 1, i32 noundef 0, i32 noundef 4)
          to label %20 unwind label %25

20:                                               ; preds = %4
  invoke void @_ZN4glTF5Asset4LoadERKNSt7__cxx1112basic_stringIcSt11char_traitsIcESaIcEEEb(ptr noundef nonnull align 8 dereferenceable(1912) %10, ptr noundef nonnull align 8 dereferenceable(32) %16, i1 noundef zeroext %19)
          to label %21 unwind label %25

21:                                               ; preds = %20
  %22 = getelementptr inbounds nuw %"class.glTF::Asset", ptr %10, i32 0, i32 9
  %23 = invoke noundef zeroext i1 @_ZNK4glTF13AssetMetadatacvbEv(ptr noundef nonnull align 8 dereferenceable(168) %22)
          to label %24 unwind label %25

24:                                               ; preds = %21
  store i1 %23, ptr %5, align 1
  store i32 1, ptr %13, align 4
  br label %38

25:                                               ; preds = %21, %20, %4
  %26 = landingpad { ptr, i32 }
          catch ptr null
  %27 = extractvalue { ptr, i32 } %26, 0
  store ptr %27, ptr %11, align 8
  %28 = extractvalue { ptr, i32 } %26, 1
  store i32 %28, ptr %12, align 4
  br label %29

29:                                               ; preds = %25
  %30 = load ptr, ptr %11, align 8
  %31 = call ptr @__cxa_begin_catch(ptr %30) #23
  store i1 false, ptr %5, align 1
  store i32 1, ptr %13, align 4
  invoke void @__cxa_end_catch()
          to label %32 unwind label %33

32:                                               ; preds = %29
  br label %38

33:                                               ; preds = %29
  %34 = landingpad { ptr, i32 }
          cleanup
  %35 = extractvalue { ptr, i32 } %34, 0
  store ptr %35, ptr %11, align 8
  %36 = extractvalue { ptr, i32 } %34, 1
  store i32 %36, ptr %12, align 4
  call void @_ZN4glTF5AssetD2Ev(ptr noundef nonnull align 8 dereferenceable(1912) %10) #23
  call void @llvm.lifetime.end.p0(i64 1912, ptr %10) #23
  br label %40

37:                                               ; No predecessors!
  unreachable

38:                                               ; preds = %32, %24
  call void @_ZN4glTF5AssetD2Ev(ptr noundef nonnull align 8 dereferenceable(1912) %10) #23
  call void @llvm.lifetime.end.p0(i64 1912, ptr %10) #23
  %39 = load i1, ptr %5, align 1
  ret i1 %39

40:                                               ; preds = %33
  %41 = load ptr, ptr %11, align 8
  %42 = load i32, ptr %12, align 4
  %43 = insertvalue { ptr, i32 } poison, ptr %41, 0
  %44 = insertvalue { ptr, i32 } %43, i32 %42, 1
  resume { ptr, i32 } %44
}