; Function Attrs: mustprogress uwtable
define hidden noundef zeroext i1 @_ZNK6Assimp12glTFImporter7CanReadERKNSt7__cxx1112basic_stringIcSt11char_traitsIcESaIcEEEPNS_8IOSystemEb(ptr nonnull readnone align 8 captures(none) %0, ptr noundef nonnull align 8 dereferenceable(32) %1, ptr noundef %2, i1 zeroext %3) unnamed_addr #6 align 2 personality ptr @__gxx_personality_v0 {
  %5 = alloca %"class.glTF::Asset", align 8
  call void @llvm.lifetime.start.p0(i64 1912, ptr nonnull %5) #30
  call void @_ZN4glTF5AssetC2EPN6Assimp8IOSystemE(ptr noundef nonnull align 8 dereferenceable(1912) %5, ptr noundef %2)
  %6 = invoke noundef zeroext i1 @_ZN6Assimp12BaseImporter15CheckMagicTokenEPNS_8IOSystemERKNSt7__cxx1112basic_stringIcSt11char_traitsIcESaIcEEEPKvmjj(ptr noundef %2, ptr noundef nonnull align 8 dereferenceable(32) %1, ptr noundef nonnull @.str, i64 noundef 1, i32 noundef 0, i32 noundef 4)
          to label %7 unwind label %16

7:                                                ; preds = %4
  invoke void @_ZN4glTF5Asset4LoadERKNSt7__cxx1112basic_stringIcSt11char_traitsIcESaIcEEEb(ptr noundef nonnull align 8 dereferenceable(1912) %5, ptr noundef nonnull align 8 dereferenceable(32) %1, i1 noundef zeroext %6)
          to label %8 unwind label %16

8:                                                ; preds = %7
  %9 = getelementptr inbounds nuw i8, ptr %5, i64 304
  %10 = load i64, ptr %9, align 8
  %.not.i = icmp eq i64 %10, 0
  br i1 %.not.i, label %_ZNK4glTF13AssetMetadatacvbEv.exit, label %11

11:                                               ; preds = %8
  %12 = getelementptr inbounds nuw i8, ptr %5, i64 296
  %13 = load ptr, ptr %12, align 8
  %14 = load i8, ptr %13, align 1
  %15 = icmp eq i8 %14, 49
  br label %_ZNK4glTF13AssetMetadatacvbEv.exit

16:                                               ; preds = %7, %4
  %17 = landingpad { ptr, i32 }
          catch ptr null
  %18 = extractvalue { ptr, i32 } %17, 0
  %19 = call ptr @__cxa_begin_catch(ptr %18) #30
  invoke void @__cxa_end_catch()
          to label %_ZNK4glTF13AssetMetadatacvbEv.exit unwind label %20

20:                                               ; preds = %16
  %21 = landingpad { ptr, i32 }
          cleanup
  call void @_ZN4glTF5AssetD2Ev(ptr noundef nonnull align 8 dereferenceable(1912) %5) #30
  call void @llvm.lifetime.end.p0(i64 1912, ptr nonnull %5) #30
  resume { ptr, i32 } %21

_ZNK4glTF13AssetMetadatacvbEv.exit:               ; preds = %11, %8, %16
  %.0 = phi i1 [ false, %16 ], [ false, %8 ], [ %15, %11 ]
  call void @_ZN4glTF5AssetD2Ev(ptr noundef nonnull align 8 dereferenceable(1912) %5) #30
  call void @llvm.lifetime.end.p0(i64 1912, ptr nonnull %5) #30
  ret i1 %.0
}